target datalayout = "e-m:e-p270:32:32-p271:32:32-p272:64:64-i64:64-i128:128-f80:128-n8:16:32:64-S128"
target triple = "x86_64-pc-linux-gnu"

%struct.cli_bc_ctx = type { i8, i16, i32, ptr, ptr, i32, i32, ptr, ptr, ptr, i32, i32, i64, ptr, ptr, ptr, %struct.cli_bc_hooks, %struct.cli_exe_info, [64 x i32], [64 x i32], i32, ptr, ptr, i32, i32, i32, i32, ptr, i32, ptr, ptr, i32, i32, i32, i32, i32, i32, ptr, ptr, ptr, ptr, ptr, ptr, ptr, i32, i32, i32, i32, ptr, ptr, ptr, ptr, ptr, i32, i32, i32, i32, ptr, ptr, ptr, ptr, i32, i32, i32, ptr, i32, ptr, i32, i32, ptr, i32 }
%struct.cli_bc_hooks = type { ptr, ptr, ptr, ptr, ptr }
%struct.cli_exe_info = type { ptr, i32, i32, i16, i32, i32, %struct.cli_hashset, i32, i32, i32, i32, i32, i32, i32, i32, i32, %struct.pe_image_file_hdr, %union.anon, [16 x %struct.pe_image_data_dir] }
%struct.cli_hashset = type { ptr, ptr, ptr, i32, i32, i32, i32 }
%struct.pe_image_file_hdr = type { i32, i16, i16, i32, i32, i32, i16, i16 }
%union.anon = type { %struct.pe_image_optional_hdr64 }
%struct.pe_image_optional_hdr64 = type { i16, i8, i8, i32, i32, i32, i32, i32, i64, i32, i32, i16, i16, i16, i16, i16, i16, i32, i32, i32, i32, i16, i16, i64, i64, i64, i64, i32, i32 }
%struct.pe_image_data_dir = type { i32, i32 }
%struct.bc_lzma = type { %struct.CLI_LZMA, i32, i32 }
%struct.CLI_LZMA = type { %struct.CLzmaDec, [5 x i8], i32, i32, i32, i32, i64, ptr, ptr, i64, i64 }
%struct.CLzmaDec = type { %struct._CLzmaProps, ptr, ptr, ptr, i32, i32, i64, i64, i32, i32, i32, [4 x i32], i32, i32, i32, i32, i32, [20 x i8] }
%struct._CLzmaProps = type { i32, i32, i32, i32 }

; Function Attrs: nounwind uwtable
define internal ptr @get_lzma(ptr noundef %0, i32 noundef %1) #0 {
  %3 = alloca ptr, align 8
  %4 = alloca ptr, align 8
  %5 = alloca i32, align 4
  store ptr %0, ptr %4, align 8
  store i32 %1, ptr %5, align 4
  %6 = load i32, ptr %5, align 4
  %7 = icmp slt i32 %6, 0
  br i1 %7, label %19, label %8

8:                                                ; preds = %2
  %9 = load i32, ptr %5, align 4
  %10 = load ptr, ptr %4, align 8
  %11 = getelementptr inbounds %struct.cli_bc_ctx, ptr %10, i32 0, i32 35
  %12 = load i32, ptr %11, align 8
  %13 = icmp uge i32 %9, %12
  br i1 %13, label %19, label %14

14:                                               ; preds = %8
  %15 = load ptr, ptr %4, align 8
  %16 = getelementptr inbounds %struct.cli_bc_ctx, ptr %15, i32 0, i32 50
  %17 = load ptr, ptr %16, align 8
  %18 = icmp ne ptr %17, null
  br i1 %18, label %20, label %19

19:                                               ; preds = %14, %8, %2
  store ptr null, ptr %3, align 8
  br label %27

20:                                               ; preds = %14
  %21 = load ptr, ptr %4, align 8
  %22 = getelementptr inbounds %struct.cli_bc_ctx, ptr %21, i32 0, i32 50
  %23 = load ptr, ptr %22, align 8
  %24 = load i32, ptr %5, align 4
  %25 = sext i32 %24 to i64
  %26 = getelementptr inbounds %struct.bc_lzma, ptr %23, i64 %25
  store ptr %26, ptr %3, align 8
  br label %27

27:                                               ; preds = %20, %19
  %28 = load ptr, ptr %3, align 8
  ret ptr %28
}

; Function Attrs: nounwind uwtable
define i32 @cli_bcapi_lzma_done(ptr noundef %0, i32 noundef %1) #0 {
  %3 = alloca i32, align 4
  %4 = alloca ptr, align 8
  %5 = alloca i32, align 4
  %6 = alloca ptr, align 8
  store ptr %0, ptr %4, align 8
  store i32 %1, ptr %5, align 4
  %7 = load ptr, ptr %4, align 8
  %8 = load i32, ptr %5, align 4
  %9 = call ptr @get_lzma(ptr noundef %7, i32 noundef %8)
  store ptr %9, ptr %6, align 8
  %10 = load ptr, ptr %6, align 8
  %11 = icmp ne ptr %10, null
  br i1 %11, label %12, label %22

12:                                               ; preds = %2
  %13 = load ptr, ptr %6, align 8
  %14 = getelementptr inbounds %struct.bc_lzma, ptr %13, i32 0, i32 1
  %15 = load i32, ptr %14, align 8
  %16 = icmp eq i32 %15, -1
  br i1 %16, label %22, label %17

17:                                               ; preds = %12
  %18 = load ptr, ptr %6, align 8
  %19 = getelementptr inbounds %struct.bc_lzma, ptr %18, i32 0, i32 2
  %20 = load i32, ptr %19, align 4
  %21 = icmp eq i32 %20, -1
  br i1 %21, label %22, label %23

22:                                               ; preds = %17, %12, %2
  store i32 -1, ptr %3, align 4
  br label %30

23:                                               ; preds = %17
  %24 = load ptr, ptr %6, align 8
  %25 = getelementptr inbounds %struct.bc_lzma, ptr %24, i32 0, i32 0
  call void @cli_LzmaShutdown(ptr noundef %25)
  %26 = load ptr, ptr %6, align 8
  %27 = getelementptr inbounds %struct.bc_lzma, ptr %26, i32 0, i32 2
  store i32 -1, ptr %27, align 4
  %28 = load ptr, ptr %6, align 8
  %29 = getelementptr inbounds %struct.bc_lzma, ptr %28, i32 0, i32 1
  store i32 -1, ptr %29, align 8
  store i32 0, ptr %3, align 4
  br label %30

30:                                               ; preds = %23, %22
  %31 = load i32, ptr %3, align 4
  ret i32 %31
}