; Function Attrs: nounwind uwtable
define noundef i32 @cli_bcapi_lzma_done(ptr nocapture noundef readonly %0, i32 noundef %1) local_unnamed_addr #1 {
  %3 = icmp slt i32 %1, 0
  br i1 %3, label %get_lzma.exit.thread, label %4

4:                                                ; preds = %2
  %5 = getelementptr inbounds i8, ptr %0, i64 1112
  %6 = load i32, ptr %5, align 8
  %.not.i = icmp ugt i32 %6, %1
  br i1 %.not.i, label %7, label %get_lzma.exit.thread

7:                                                ; preds = %4
  %8 = getelementptr inbounds i8, ptr %0, i64 1208
  %9 = load ptr, ptr %8, align 8
  %.not8.i = icmp eq ptr %9, null
  br i1 %.not8.i, label %get_lzma.exit.thread, label %get_lzma.exit

get_lzma.exit:                                    ; preds = %7
  %10 = zext nneg i32 %1 to i64
  %11 = getelementptr inbounds %struct.bc_lzma, ptr %9, i64 %10
  %12 = getelementptr inbounds i8, ptr %11, i64 200
  %13 = load i32, ptr %12, align 8
  %14 = icmp eq i32 %13, -1
  br i1 %14, label %get_lzma.exit.thread, label %15

15:                                               ; preds = %get_lzma.exit
  %16 = getelementptr inbounds i8, ptr %11, i64 204
  %17 = load i32, ptr %16, align 4
  %18 = icmp eq i32 %17, -1
  br i1 %18, label %get_lzma.exit.thread, label %19

19:                                               ; preds = %15
  tail call void @cli_LzmaShutdown(ptr noundef nonnull %11) #29
  store i32 -1, ptr %16, align 4
  store i32 -1, ptr %12, align 8
  br label %get_lzma.exit.thread

get_lzma.exit.thread:                             ; preds = %2, %4, %7, %get_lzma.exit, %15, %19
  %.0 = phi i32 [ 0, %19 ], [ -1, %15 ], [ -1, %get_lzma.exit ], [ -1, %7 ], [ -1, %4 ], [ -1, %2 ]
  ret i32 %.0
}